target datalayout = "e-m:e-p270:32:32-p271:32:32-p272:64:64-i64:64-i128:128-f80:128-n8:16:32:64-S128"
target triple = "x86_64-pc-linux-gnu"

%"struct.(anonymous namespace)::t_pdbindex" = type { i32, i32, i32, i8, i8 }

; Function Attrs: mustprogress nounwind uwtable
define internal noundef zeroext i1 @_ZN12_GLOBAL__N_18pdbicompERKNS_10t_pdbindexES2_(ptr noundef nonnull align 4 dereferenceable(16) %0, ptr noundef nonnull align 4 dereferenceable(16) %1) #3 {
  %3 = alloca ptr, align 8
  %4 = alloca ptr, align 8
  %5 = alloca i32, align 4
  store ptr %0, ptr %3, align 8, !tbaa !337
  store ptr %1, ptr %4, align 8, !tbaa !337
  call void @llvm.lifetime.start.p0(i64 4, ptr %5) #22
  %6 = load ptr, ptr %3, align 8, !tbaa !337
  %7 = getelementptr inbounds nuw %"struct.(anonymous namespace)::t_pdbindex", ptr %6, i32 0, i32 0
  %8 = load i32, ptr %7, align 4, !tbaa !907
  %9 = load ptr, ptr %4, align 8, !tbaa !337
  %10 = getelementptr inbounds nuw %"struct.(anonymous namespace)::t_pdbindex", ptr %9, i32 0, i32 0
  %11 = load i32, ptr %10, align 4, !tbaa !907
  %12 = sub nsw i32 %8, %11
  store i32 %12, ptr %5, align 4, !tbaa !115
  %13 = load i32, ptr %5, align 4, !tbaa !115
  %14 = icmp eq i32 %13, 0
  br i1 %14, label %15, label %49

15:                                               ; preds = %2
  %16 = load ptr, ptr %3, align 8, !tbaa !337
  %17 = getelementptr inbounds nuw %"struct.(anonymous namespace)::t_pdbindex", ptr %16, i32 0, i32 1
  %18 = load i32, ptr %17, align 4, !tbaa !911
  %19 = load ptr, ptr %4, align 8, !tbaa !337
  %20 = getelementptr inbounds nuw %"struct.(anonymous namespace)::t_pdbindex", ptr %19, i32 0, i32 1
  %21 = load i32, ptr %20, align 4, !tbaa !911
  %22 = sub nsw i32 %18, %21
  store i32 %22, ptr %5, align 4, !tbaa !115
  %23 = load i32, ptr %5, align 4, !tbaa !115
  %24 = icmp eq i32 %23, 0
  br i1 %24, label %25, label %48

25:                                               ; preds = %15
  %26 = load ptr, ptr %3, align 8, !tbaa !337
  %27 = getelementptr inbounds nuw %"struct.(anonymous namespace)::t_pdbindex", ptr %26, i32 0, i32 3
  %28 = load i8, ptr %27, align 4, !tbaa !913
  %29 = sext i8 %28 to i32
  %30 = load ptr, ptr %4, align 8, !tbaa !337
  %31 = getelementptr inbounds nuw %"struct.(anonymous namespace)::t_pdbindex", ptr %30, i32 0, i32 3
  %32 = load i8, ptr %31, align 4, !tbaa !913
  %33 = sext i8 %32 to i32
  %34 = sub nsw i32 %29, %33
  store i32 %34, ptr %5, align 4, !tbaa !115
  %35 = load i32, ptr %5, align 4, !tbaa !115
  %36 = icmp eq i32 %35, 0
  br i1 %36, label %37, label %47

37:                                               ; preds = %25
  %38 = load ptr, ptr %3, align 8, !tbaa !337
  %39 = getelementptr inbounds nuw %"struct.(anonymous namespace)::t_pdbindex", ptr %38, i32 0, i32 4
  %40 = load i8, ptr %39, align 1, !tbaa !915
  %41 = sext i8 %40 to i32
  %42 = load ptr, ptr %4, align 8, !tbaa !337
  %43 = getelementptr inbounds nuw %"struct.(anonymous namespace)::t_pdbindex", ptr %42, i32 0, i32 4
  %44 = load i8, ptr %43, align 1, !tbaa !915
  %45 = sext i8 %44 to i32
  %46 = sub nsw i32 %41, %45
  store i32 %46, ptr %5, align 4, !tbaa !115
  br label %47

47:                                               ; preds = %37, %25
  br label %48

48:                                               ; preds = %47, %15
  br label %49

49:                                               ; preds = %48, %2
  %50 = load i32, ptr %5, align 4, !tbaa !115
  %51 = icmp slt i32 %50, 0
  call void @llvm.lifetime.end.p0(i64 4, ptr %5) #22
  ret i1 %51
}