; Function Attrs: mustprogress nofree norecurse nosync nounwind willreturn memory(argmem: read) uwtable
define internal noundef zeroext i1 @_ZN12_GLOBAL__N_18pdbicompERKNS_10t_pdbindexES2_(ptr noundef nonnull readonly align 4 captures(none) dereferenceable(16) %0, ptr noundef nonnull readonly align 4 captures(none) dereferenceable(16) %1) #13 {
  %3 = load i32, ptr %0, align 4, !tbaa !398
  %4 = load i32, ptr %1, align 4, !tbaa !398
  %5 = sub nsw i32 %3, %4
  %6 = icmp eq i32 %5, 0
  br i1 %6, label %7, label %31

7:                                                ; preds = %2
  %8 = getelementptr inbounds nuw i8, ptr %0, i64 4
  %9 = load i32, ptr %8, align 4, !tbaa !400
  %10 = getelementptr inbounds nuw i8, ptr %1, i64 4
  %11 = load i32, ptr %10, align 4, !tbaa !400
  %12 = sub nsw i32 %9, %11
  %13 = icmp eq i32 %12, 0
  br i1 %13, label %14, label %31

14:                                               ; preds = %7
  %15 = getelementptr inbounds nuw i8, ptr %0, i64 12
  %16 = load i8, ptr %15, align 4, !tbaa !401
  %17 = sext i8 %16 to i32
  %18 = getelementptr inbounds nuw i8, ptr %1, i64 12
  %19 = load i8, ptr %18, align 4, !tbaa !401
  %20 = sext i8 %19 to i32
  %21 = sub nsw i32 %17, %20
  %22 = icmp eq i32 %21, 0
  br i1 %22, label %23, label %31

23:                                               ; preds = %14
  %24 = getelementptr inbounds nuw i8, ptr %0, i64 13
  %25 = load i8, ptr %24, align 1, !tbaa !402
  %26 = sext i8 %25 to i32
  %27 = getelementptr inbounds nuw i8, ptr %1, i64 13
  %28 = load i8, ptr %27, align 1, !tbaa !402
  %29 = sext i8 %28 to i32
  %30 = sub nsw i32 %26, %29
  br label %31

31:                                               ; preds = %7, %23, %14, %2
  %.0 = phi i32 [ %30, %23 ], [ %21, %14 ], [ %12, %7 ], [ %5, %2 ]
  %32 = icmp slt i32 %.0, 0
  ret i1 %32
}